target datalayout = "e-m:e-p270:32:32-p271:32:32-p272:64:64-i64:64-i128:128-f80:128-n8:16:32:64-S128"
target triple = "x86_64-pc-linux-gnu"

; Function Attrs: nounwind uwtable
define internal void @vp7_luma_dc_wht_c(ptr noundef %0, ptr noundef %1) #1 {
  %3 = alloca ptr, align 8
  %4 = alloca ptr, align 8
  %5 = alloca i32, align 4
  %6 = alloca i32, align 4
  %7 = alloca i32, align 4
  %8 = alloca i32, align 4
  %9 = alloca i32, align 4
  %10 = alloca [16 x i16], align 16
  store ptr %0, ptr %3, align 8, !tbaa !134
  store ptr %1, ptr %4, align 8, !tbaa !134
  call void @llvm.lifetime.start.p0(i64 4, ptr %5) #6
  call void @llvm.lifetime.start.p0(i64 4, ptr %6) #6
  call void @llvm.lifetime.start.p0(i64 4, ptr %7) #6
  call void @llvm.lifetime.start.p0(i64 4, ptr %8) #6
  call void @llvm.lifetime.start.p0(i64 4, ptr %9) #6
  call void @llvm.lifetime.start.p0(i64 32, ptr %10) #6
  store i32 0, ptr %5, align 4, !tbaa !14
  br label %11

11:                                               ; preds = %129, %2
  %12 = load i32, ptr %5, align 4, !tbaa !14
  %13 = icmp slt i32 %12, 4
  br i1 %13, label %14, label %132

14:                                               ; preds = %11
  %15 = load ptr, ptr %4, align 8, !tbaa !134
  %16 = load i32, ptr %5, align 4, !tbaa !14
  %17 = mul nsw i32 %16, 4
  %18 = add nsw i32 %17, 0
  %19 = sext i32 %18 to i64
  %20 = getelementptr inbounds i16, ptr %15, i64 %19
  %21 = load i16, ptr %20, align 2, !tbaa !136
  %22 = sext i16 %21 to i32
  %23 = load ptr, ptr %4, align 8, !tbaa !134
  %24 = load i32, ptr %5, align 4, !tbaa !14
  %25 = mul nsw i32 %24, 4
  %26 = add nsw i32 %25, 2
  %27 = sext i32 %26 to i64
  %28 = getelementptr inbounds i16, ptr %23, i64 %27
  %29 = load i16, ptr %28, align 2, !tbaa !136
  %30 = sext i16 %29 to i32
  %31 = add nsw i32 %22, %30
  %32 = mul nsw i32 %31, 23170
  store i32 %32, ptr %6, align 4, !tbaa !14
  %33 = load ptr, ptr %4, align 8, !tbaa !134
  %34 = load i32, ptr %5, align 4, !tbaa !14
  %35 = mul nsw i32 %34, 4
  %36 = add nsw i32 %35, 0
  %37 = sext i32 %36 to i64
  %38 = getelementptr inbounds i16, ptr %33, i64 %37
  %39 = load i16, ptr %38, align 2, !tbaa !136
  %40 = sext i16 %39 to i32
  %41 = load ptr, ptr %4, align 8, !tbaa !134
  %42 = load i32, ptr %5, align 4, !tbaa !14
  %43 = mul nsw i32 %42, 4
  %44 = add nsw i32 %43, 2
  %45 = sext i32 %44 to i64
  %46 = getelementptr inbounds i16, ptr %41, i64 %45
  %47 = load i16, ptr %46, align 2, !tbaa !136
  %48 = sext i16 %47 to i32
  %49 = sub nsw i32 %40, %48
  %50 = mul nsw i32 %49, 23170
  store i32 %50, ptr %7, align 4, !tbaa !14
  %51 = load ptr, ptr %4, align 8, !tbaa !134
  %52 = load i32, ptr %5, align 4, !tbaa !14
  %53 = mul nsw i32 %52, 4
  %54 = add nsw i32 %53, 1
  %55 = sext i32 %54 to i64
  %56 = getelementptr inbounds i16, ptr %51, i64 %55
  %57 = load i16, ptr %56, align 2, !tbaa !136
  %58 = sext i16 %57 to i32
  %59 = mul nsw i32 %58, 12540
  %60 = load ptr, ptr %4, align 8, !tbaa !134
  %61 = load i32, ptr %5, align 4, !tbaa !14
  %62 = mul nsw i32 %61, 4
  %63 = add nsw i32 %62, 3
  %64 = sext i32 %63 to i64
  %65 = getelementptr inbounds i16, ptr %60, i64 %64
  %66 = load i16, ptr %65, align 2, !tbaa !136
  %67 = sext i16 %66 to i32
  %68 = mul nsw i32 %67, 30274
  %69 = sub nsw i32 %59, %68
  store i32 %69, ptr %8, align 4, !tbaa !14
  %70 = load ptr, ptr %4, align 8, !tbaa !134
  %71 = load i32, ptr %5, align 4, !tbaa !14
  %72 = mul nsw i32 %71, 4
  %73 = add nsw i32 %72, 1
  %74 = sext i32 %73 to i64
  %75 = getelementptr inbounds i16, ptr %70, i64 %74
  %76 = load i16, ptr %75, align 2, !tbaa !136
  %77 = sext i16 %76 to i32
  %78 = mul nsw i32 %77, 30274
  %79 = load ptr, ptr %4, align 8, !tbaa !134
  %80 = load i32, ptr %5, align 4, !tbaa !14
  %81 = mul nsw i32 %80, 4
  %82 = add nsw i32 %81, 3
  %83 = sext i32 %82 to i64
  %84 = getelementptr inbounds i16, ptr %79, i64 %83
  %85 = load i16, ptr %84, align 2, !tbaa !136
  %86 = sext i16 %85 to i32
  %87 = mul nsw i32 %86, 12540
  %88 = add nsw i32 %78, %87
  store i32 %88, ptr %9, align 4, !tbaa !14
  %89 = load i32, ptr %6, align 4, !tbaa !14
  %90 = load i32, ptr %9, align 4, !tbaa !14
  %91 = add i32 %89, %90
  %92 = ashr i32 %91, 14
  %93 = trunc i32 %92 to i16
  %94 = load i32, ptr %5, align 4, !tbaa !14
  %95 = mul nsw i32 %94, 4
  %96 = add nsw i32 %95, 0
  %97 = sext i32 %96 to i64
  %98 = getelementptr inbounds [16 x i16], ptr %10, i64 0, i64 %97
  store i16 %93, ptr %98, align 2, !tbaa !136
  %99 = load i32, ptr %6, align 4, !tbaa !14
  %100 = load i32, ptr %9, align 4, !tbaa !14
  %101 = sub i32 %99, %100
  %102 = ashr i32 %101, 14
  %103 = trunc i32 %102 to i16
  %104 = load i32, ptr %5, align 4, !tbaa !14
  %105 = mul nsw i32 %104, 4
  %106 = add nsw i32 %105, 3
  %107 = sext i32 %106 to i64
  %108 = getelementptr inbounds [16 x i16], ptr %10, i64 0, i64 %107
  store i16 %103, ptr %108, align 2, !tbaa !136
  %109 = load i32, ptr %7, align 4, !tbaa !14
  %110 = load i32, ptr %8, align 4, !tbaa !14
  %111 = add i32 %109, %110
  %112 = ashr i32 %111, 14
  %113 = trunc i32 %112 to i16
  %114 = load i32, ptr %5, align 4, !tbaa !14
  %115 = mul nsw i32 %114, 4
  %116 = add nsw i32 %115, 1
  %117 = sext i32 %116 to i64
  %118 = getelementptr inbounds [16 x i16], ptr %10, i64 0, i64 %117
  store i16 %113, ptr %118, align 2, !tbaa !136
  %119 = load i32, ptr %7, align 4, !tbaa !14
  %120 = load i32, ptr %8, align 4, !tbaa !14
  %121 = sub i32 %119, %120
  %122 = ashr i32 %121, 14
  %123 = trunc i32 %122 to i16
  %124 = load i32, ptr %5, align 4, !tbaa !14
  %125 = mul nsw i32 %124, 4
  %126 = add nsw i32 %125, 2
  %127 = sext i32 %126 to i64
  %128 = getelementptr inbounds [16 x i16], ptr %10, i64 0, i64 %127
  store i16 %123, ptr %128, align 2, !tbaa !136
  br label %129

129:                                              ; preds = %14
  %130 = load i32, ptr %5, align 4, !tbaa !14
  %131 = add nsw i32 %130, 1
  store i32 %131, ptr %5, align 4, !tbaa !14
  br label %11, !llvm.loop !138

132:                                              ; preds = %11
  store i32 0, ptr %5, align 4, !tbaa !14
  br label %133

133:                                              ; preds = %248, %132
  %134 = load i32, ptr %5, align 4, !tbaa !14
  %135 = icmp slt i32 %134, 4
  br i1 %135, label %136, label %251

136:                                              ; preds = %133
  %137 = load i32, ptr %5, align 4, !tbaa !14
  %138 = add nsw i32 %137, 0
  %139 = sext i32 %138 to i64
  %140 = getelementptr inbounds [16 x i16], ptr %10, i64 0, i64 %139
  %141 = load i16, ptr %140, align 2, !tbaa !136
  %142 = sext i16 %141 to i32
  %143 = load i32, ptr %5, align 4, !tbaa !14
  %144 = add nsw i32 %143, 8
  %145 = sext i32 %144 to i64
  %146 = getelementptr inbounds [16 x i16], ptr %10, i64 0, i64 %145
  %147 = load i16, ptr %146, align 2, !tbaa !136
  %148 = sext i16 %147 to i32
  %149 = add nsw i32 %142, %148
  %150 = mul nsw i32 %149, 23170
  store i32 %150, ptr %6, align 4, !tbaa !14
  %151 = load i32, ptr %5, align 4, !tbaa !14
  %152 = add nsw i32 %151, 0
  %153 = sext i32 %152 to i64
  %154 = getelementptr inbounds [16 x i16], ptr %10, i64 0, i64 %153
  %155 = load i16, ptr %154, align 2, !tbaa !136
  %156 = sext i16 %155 to i32
  %157 = load i32, ptr %5, align 4, !tbaa !14
  %158 = add nsw i32 %157, 8
  %159 = sext i32 %158 to i64
  %160 = getelementptr inbounds [16 x i16], ptr %10, i64 0, i64 %159
  %161 = load i16, ptr %160, align 2, !tbaa !136
  %162 = sext i16 %161 to i32
  %163 = sub nsw i32 %156, %162
  %164 = mul nsw i32 %163, 23170
  store i32 %164, ptr %7, align 4, !tbaa !14
  %165 = load i32, ptr %5, align 4, !tbaa !14
  %166 = add nsw i32 %165, 4
  %167 = sext i32 %166 to i64
  %168 = getelementptr inbounds [16 x i16], ptr %10, i64 0, i64 %167
  %169 = load i16, ptr %168, align 2, !tbaa !136
  %170 = sext i16 %169 to i32
  %171 = mul nsw i32 %170, 12540
  %172 = load i32, ptr %5, align 4, !tbaa !14
  %173 = add nsw i32 %172, 12
  %174 = sext i32 %173 to i64
  %175 = getelementptr inbounds [16 x i16], ptr %10, i64 0, i64 %174
  %176 = load i16, ptr %175, align 2, !tbaa !136
  %177 = sext i16 %176 to i32
  %178 = mul nsw i32 %177, 30274
  %179 = sub nsw i32 %171, %178
  store i32 %179, ptr %8, align 4, !tbaa !14
  %180 = load i32, ptr %5, align 4, !tbaa !14
  %181 = add nsw i32 %180, 4
  %182 = sext i32 %181 to i64
  %183 = getelementptr inbounds [16 x i16], ptr %10, i64 0, i64 %182
  %184 = load i16, ptr %183, align 2, !tbaa !136
  %185 = sext i16 %184 to i32
  %186 = mul nsw i32 %185, 30274
  %187 = load i32, ptr %5, align 4, !tbaa !14
  %188 = add nsw i32 %187, 12
  %189 = sext i32 %188 to i64
  %190 = getelementptr inbounds [16 x i16], ptr %10, i64 0, i64 %189
  %191 = load i16, ptr %190, align 2, !tbaa !136
  %192 = sext i16 %191 to i32
  %193 = mul nsw i32 %192, 12540
  %194 = add nsw i32 %186, %193
  store i32 %194, ptr %9, align 4, !tbaa !14
  %195 = load ptr, ptr %4, align 8, !tbaa !134
  %196 = load i32, ptr %5, align 4, !tbaa !14
  %197 = mul nsw i32 %196, 4
  %198 = sext i32 %197 to i64
  %199 = getelementptr inbounds i16, ptr %195, i64 %198
  store i64 0, ptr %199, align 8, !tbaa !18
  %200 = load i32, ptr %6, align 4, !tbaa !14
  %201 = load i32, ptr %9, align 4, !tbaa !14
  %202 = add i32 %200, %201
  %203 = add i32 %202, 131072
  %204 = ashr i32 %203, 18
  %205 = trunc i32 %204 to i16
  %206 = load ptr, ptr %3, align 8, !tbaa !134
  %207 = getelementptr inbounds [4 x [16 x i16]], ptr %206, i64 0
  %208 = load i32, ptr %5, align 4, !tbaa !14
  %209 = sext i32 %208 to i64
  %210 = getelementptr inbounds [4 x [16 x i16]], ptr %207, i64 0, i64 %209
  %211 = getelementptr inbounds [16 x i16], ptr %210, i64 0, i64 0
  store i16 %205, ptr %211, align 2, !tbaa !136
  %212 = load i32, ptr %6, align 4, !tbaa !14
  %213 = load i32, ptr %9, align 4, !tbaa !14
  %214 = sub i32 %212, %213
  %215 = add i32 %214, 131072
  %216 = ashr i32 %215, 18
  %217 = trunc i32 %216 to i16
  %218 = load ptr, ptr %3, align 8, !tbaa !134
  %219 = getelementptr inbounds [4 x [16 x i16]], ptr %218, i64 3
  %220 = load i32, ptr %5, align 4, !tbaa !14
  %221 = sext i32 %220 to i64
  %222 = getelementptr inbounds [4 x [16 x i16]], ptr %219, i64 0, i64 %221
  %223 = getelementptr inbounds [16 x i16], ptr %222, i64 0, i64 0
  store i16 %217, ptr %223, align 2, !tbaa !136
  %224 = load i32, ptr %7, align 4, !tbaa !14
  %225 = load i32, ptr %8, align 4, !tbaa !14
  %226 = add i32 %224, %225
  %227 = add i32 %226, 131072
  %228 = ashr i32 %227, 18
  %229 = trunc i32 %228 to i16
  %230 = load ptr, ptr %3, align 8, !tbaa !134
  %231 = getelementptr inbounds [4 x [16 x i16]], ptr %230, i64 1
  %232 = load i32, ptr %5, align 4, !tbaa !14
  %233 = sext i32 %232 to i64
  %234 = getelementptr inbounds [4 x [16 x i16]], ptr %231, i64 0, i64 %233
  %235 = getelementptr inbounds [16 x i16], ptr %234, i64 0, i64 0
  store i16 %229, ptr %235, align 2, !tbaa !136
  %236 = load i32, ptr %7, align 4, !tbaa !14
  %237 = load i32, ptr %8, align 4, !tbaa !14
  %238 = sub i32 %236, %237
  %239 = add i32 %238, 131072
  %240 = ashr i32 %239, 18
  %241 = trunc i32 %240 to i16
  %242 = load ptr, ptr %3, align 8, !tbaa !134
  %243 = getelementptr inbounds [4 x [16 x i16]], ptr %242, i64 2
  %244 = load i32, ptr %5, align 4, !tbaa !14
  %245 = sext i32 %244 to i64
  %246 = getelementptr inbounds [4 x [16 x i16]], ptr %243, i64 0, i64 %245
  %247 = getelementptr inbounds [16 x i16], ptr %246, i64 0, i64 0
  store i16 %241, ptr %247, align 2, !tbaa !136
  br label %248

248:                                              ; preds = %136
  %249 = load i32, ptr %5, align 4, !tbaa !14
  %250 = add nsw i32 %249, 1
  store i32 %250, ptr %5, align 4, !tbaa !14
  br label %133, !llvm.loop !139

251:                                              ; preds = %133
  call void @llvm.lifetime.end.p0(i64 32, ptr %10) #6
  call void @llvm.lifetime.end.p0(i64 4, ptr %9) #6
  call void @llvm.lifetime.end.p0(i64 4, ptr %8) #6
  call void @llvm.lifetime.end.p0(i64 4, ptr %7) #6
  call void @llvm.lifetime.end.p0(i64 4, ptr %6) #6
  call void @llvm.lifetime.end.p0(i64 4, ptr %5) #6
  ret void
}