; Function Attrs: nofree norecurse nosync nounwind memory(argmem: readwrite) uwtable
define internal void @vp7_luma_dc_wht_c(ptr noundef writeonly captures(none) %0, ptr noundef captures(none) %1) #1 {
  %3 = alloca [16 x i16], align 16
  call void @llvm.lifetime.start.p0(i64 32, ptr nonnull %3) #5
  br label %7

.preheader:                                       ; preds = %7
  %4 = getelementptr inbounds nuw i8, ptr %0, i64 384
  %5 = getelementptr inbounds nuw i8, ptr %0, i64 128
  %6 = getelementptr inbounds nuw i8, ptr %0, i64 256
  br label %49

7:                                                ; preds = %2, %7
  %indvars.iv = phi i64 [ 0, %2 ], [ %indvars.iv.next, %7 ]
  %8 = shl nuw nsw i64 %indvars.iv, 2
  %9 = getelementptr inbounds nuw i16, ptr %1, i64 %8
  %10 = load i16, ptr %9, align 2, !tbaa !126
  %11 = sext i16 %10 to i32
  %12 = or disjoint i64 %8, 2
  %13 = getelementptr inbounds nuw i16, ptr %1, i64 %12
  %14 = load i16, ptr %13, align 2, !tbaa !126
  %15 = sext i16 %14 to i32
  %16 = add nsw i32 %15, %11
  %17 = mul nsw i32 %16, 23170
  %18 = sub nsw i32 %11, %15
  %19 = mul nsw i32 %18, 23170
  %20 = or disjoint i64 %8, 1
  %21 = getelementptr inbounds nuw i16, ptr %1, i64 %20
  %22 = load i16, ptr %21, align 2, !tbaa !126
  %23 = sext i16 %22 to i32
  %24 = mul nsw i32 %23, 12540
  %25 = or disjoint i64 %8, 3
  %26 = getelementptr inbounds nuw i16, ptr %1, i64 %25
  %27 = load i16, ptr %26, align 2, !tbaa !126
  %28 = sext i16 %27 to i32
  %.neg57 = mul nsw i32 %28, -30274
  %29 = add nsw i32 %.neg57, %24
  %30 = mul nsw i32 %23, 30274
  %31 = mul nsw i32 %28, 12540
  %32 = add nsw i32 %31, %30
  %33 = add i32 %32, %17
  %34 = lshr i32 %33, 14
  %35 = trunc i32 %34 to i16
  %36 = getelementptr inbounds nuw [16 x i16], ptr %3, i64 0, i64 %8
  store i16 %35, ptr %36, align 8, !tbaa !126
  %37 = sub i32 %17, %32
  %38 = lshr i32 %37, 14
  %39 = trunc i32 %38 to i16
  %40 = getelementptr inbounds nuw [16 x i16], ptr %3, i64 0, i64 %25
  store i16 %39, ptr %40, align 2, !tbaa !126
  %41 = add i32 %29, %19
  %42 = lshr i32 %41, 14
  %43 = trunc i32 %42 to i16
  %44 = getelementptr inbounds nuw [16 x i16], ptr %3, i64 0, i64 %20
  store i16 %43, ptr %44, align 2, !tbaa !126
  %45 = sub i32 %19, %29
  %46 = lshr i32 %45, 14
  %47 = trunc i32 %46 to i16
  %48 = getelementptr inbounds nuw [16 x i16], ptr %3, i64 0, i64 %12
  store i16 %47, ptr %48, align 4, !tbaa !126
  %indvars.iv.next = add nuw nsw i64 %indvars.iv, 1
  %exitcond.not = icmp eq i64 %indvars.iv.next, 4
  br i1 %exitcond.not, label %.preheader, label %7, !llvm.loop !128

49:                                               ; preds = %.preheader, %49
  %indvars.iv63 = phi i64 [ 0, %.preheader ], [ %indvars.iv.next64, %49 ]
  %50 = getelementptr inbounds nuw [16 x i16], ptr %3, i64 0, i64 %indvars.iv63
  %51 = load i16, ptr %50, align 2, !tbaa !126
  %52 = sext i16 %51 to i32
  %53 = or disjoint i64 %indvars.iv63, 8
  %54 = getelementptr inbounds nuw [16 x i16], ptr %3, i64 0, i64 %53
  %55 = load i16, ptr %54, align 2, !tbaa !126
  %56 = sext i16 %55 to i32
  %57 = add nsw i32 %56, %52
  %58 = mul nsw i32 %57, 23170
  %59 = sub nsw i32 %52, %56
  %60 = mul nsw i32 %59, 23170
  %61 = or disjoint i64 %indvars.iv63, 4
  %62 = getelementptr inbounds nuw [16 x i16], ptr %3, i64 0, i64 %61
  %63 = load i16, ptr %62, align 2, !tbaa !126
  %64 = sext i16 %63 to i32
  %65 = mul nsw i32 %64, 12540
  %66 = or disjoint i64 %indvars.iv63, 12
  %67 = getelementptr inbounds nuw [16 x i16], ptr %3, i64 0, i64 %66
  %68 = load i16, ptr %67, align 2, !tbaa !126
  %69 = sext i16 %68 to i32
  %.neg = mul nsw i32 %69, -30274
  %70 = add nsw i32 %.neg, %65
  %71 = mul nsw i32 %64, 30274
  %72 = mul nsw i32 %69, 12540
  %73 = add nsw i32 %72, %71
  %.idx = shl nuw nsw i64 %indvars.iv63, 3
  %74 = getelementptr inbounds nuw i8, ptr %1, i64 %.idx
  store i64 0, ptr %74, align 8, !tbaa !10
  %75 = add nsw i32 %58, 131072
  %76 = add i32 %75, %73
  %77 = ashr i32 %76, 18
  %78 = trunc nsw i32 %77 to i16
  %79 = getelementptr inbounds nuw [4 x [16 x i16]], ptr %0, i64 0, i64 %indvars.iv63
  store i16 %78, ptr %79, align 2, !tbaa !126
  %80 = sub i32 %75, %73
  %81 = ashr i32 %80, 18
  %82 = trunc nsw i32 %81 to i16
  %83 = getelementptr inbounds nuw [4 x [16 x i16]], ptr %4, i64 0, i64 %indvars.iv63
  store i16 %82, ptr %83, align 2, !tbaa !126
  %84 = add nsw i32 %60, 131072
  %85 = add i32 %84, %70
  %86 = ashr i32 %85, 18
  %87 = trunc nsw i32 %86 to i16
  %88 = getelementptr inbounds nuw [4 x [16 x i16]], ptr %5, i64 0, i64 %indvars.iv63
  store i16 %87, ptr %88, align 2, !tbaa !126
  %89 = sub i32 %84, %70
  %90 = ashr i32 %89, 18
  %91 = trunc nsw i32 %90 to i16
  %92 = getelementptr inbounds nuw [4 x [16 x i16]], ptr %6, i64 0, i64 %indvars.iv63
  store i16 %91, ptr %92, align 2, !tbaa !126
  %indvars.iv.next64 = add nuw nsw i64 %indvars.iv63, 1
  %exitcond66.not = icmp eq i64 %indvars.iv.next64, 4
  br i1 %exitcond66.not, label %93, label %49, !llvm.loop !129

93:                                               ; preds = %49
  call void @llvm.lifetime.end.p0(i64 32, ptr nonnull %3) #5
  ret void
}